target datalayout = "e-m:e-p270:32:32-p271:32:32-p272:64:64-i64:64-i128:128-f80:128-n8:16:32:64-S128"
target triple = "x86_64-pc-linux-gnu"

%struct.wpacket_st = type { ptr, ptr, i64, i64, i64, ptr, i8 }
%struct.vector_st = type { ptr, i64 }
%struct.poly_st = type { [256 x i32] }

; Function Attrs: nounwind uwtable
define i32 @ossl_ml_dsa_w1_encode(ptr noundef %0, i32 noundef %1, ptr noundef %2, i64 noundef %3) #0 {
  %5 = alloca i32, align 4
  %6 = alloca ptr, align 8
  %7 = alloca i32, align 4
  %8 = alloca ptr, align 8
  %9 = alloca i64, align 8
  %10 = alloca %struct.wpacket_st, align 8
  %11 = alloca ptr, align 8
  %12 = alloca i32, align 4
  %13 = alloca i64, align 8
  %14 = alloca i32, align 4
  store ptr %0, ptr %6, align 8, !tbaa !80
  store i32 %1, ptr %7, align 4, !tbaa !8
  store ptr %2, ptr %8, align 8, !tbaa !25
  store i64 %3, ptr %9, align 8, !tbaa !10
  call void @llvm.lifetime.start.p0(i64 56, ptr %10) #7
  call void @llvm.lifetime.start.p0(i64 8, ptr %11) #7
  call void @llvm.lifetime.start.p0(i64 4, ptr %12) #7
  store i32 0, ptr %12, align 4, !tbaa !8
  call void @llvm.lifetime.start.p0(i64 8, ptr %13) #7
  %15 = load ptr, ptr %8, align 8, !tbaa !25
  %16 = load i64, ptr %9, align 8, !tbaa !10
  %17 = call i32 @WPACKET_init_static_len(ptr noundef %10, ptr noundef %15, i64 noundef %16, i64 noundef 0)
  %18 = icmp ne i32 %17, 0
  br i1 %18, label %20, label %19

19:                                               ; preds = %4
  store i32 0, ptr %5, align 4
  store i32 1, ptr %14, align 4
  br label %50

20:                                               ; preds = %4
  %21 = load i32, ptr %7, align 4, !tbaa !8
  %22 = icmp eq i32 %21, 261888
  br i1 %22, label %23, label %24

23:                                               ; preds = %20
  store ptr @poly_encode_4_bits, ptr %11, align 8, !tbaa !40
  br label %25

24:                                               ; preds = %20
  store ptr @poly_encode_6_bits, ptr %11, align 8, !tbaa !40
  br label %25

25:                                               ; preds = %24, %23
  store i64 0, ptr %13, align 8, !tbaa !10
  br label %26

26:                                               ; preds = %43, %25
  %27 = load i64, ptr %13, align 8, !tbaa !10
  %28 = load ptr, ptr %6, align 8, !tbaa !80
  %29 = getelementptr inbounds nuw %struct.vector_st, ptr %28, i32 0, i32 1
  %30 = load i64, ptr %29, align 8, !tbaa !82
  %31 = icmp ult i64 %27, %30
  br i1 %31, label %32, label %46

32:                                               ; preds = %26
  %33 = load ptr, ptr %11, align 8, !tbaa !40
  %34 = load ptr, ptr %6, align 8, !tbaa !80
  %35 = getelementptr inbounds nuw %struct.vector_st, ptr %34, i32 0, i32 0
  %36 = load ptr, ptr %35, align 8, !tbaa !83
  %37 = load i64, ptr %13, align 8, !tbaa !10
  %38 = getelementptr inbounds nuw %struct.poly_st, ptr %36, i64 %37
  %39 = call i32 %33(ptr noundef %38, ptr noundef %10)
  %40 = icmp ne i32 %39, 0
  br i1 %40, label %42, label %41

41:                                               ; preds = %32
  br label %47

42:                                               ; preds = %32
  br label %43

43:                                               ; preds = %42
  %44 = load i64, ptr %13, align 8, !tbaa !10
  %45 = add i64 %44, 1
  store i64 %45, ptr %13, align 8, !tbaa !10
  br label %26, !llvm.loop !94

46:                                               ; preds = %26
  store i32 1, ptr %12, align 4, !tbaa !8
  br label %47

47:                                               ; preds = %46, %41
  %48 = call i32 @WPACKET_finish(ptr noundef %10)
  %49 = load i32, ptr %12, align 4, !tbaa !8
  store i32 %49, ptr %5, align 4
  store i32 1, ptr %14, align 4
  br label %50

50:                                               ; preds = %47, %19
  call void @llvm.lifetime.end.p0(i64 8, ptr %13) #7
  call void @llvm.lifetime.end.p0(i64 4, ptr %12) #7
  call void @llvm.lifetime.end.p0(i64 8, ptr %11) #7
  call void @llvm.lifetime.end.p0(i64 56, ptr %10) #7
  %51 = load i32, ptr %5, align 4
  ret i32 %51
}