; Function Attrs: nounwind uwtable
define range(i32 0, 2) i32 @ossl_ml_dsa_w1_encode(ptr noundef readonly captures(none) %0, i32 noundef %1, ptr noundef %2, i64 noundef %3) local_unnamed_addr #0 {
  %5 = alloca %struct.wpacket_st, align 8
  call void @llvm.lifetime.start.p0(i64 56, ptr nonnull %5) #9
  %6 = call i32 @WPACKET_init_static_len(ptr noundef nonnull %5, ptr noundef %2, i64 noundef %3, i64 noundef 0) #9
  %.not = icmp eq i32 %6, 0
  br i1 %.not, label %19, label %7

7:                                                ; preds = %4
  %8 = icmp eq i32 %1, 261888
  %poly_encode_4_bits.poly_encode_6_bits = select i1 %8, ptr @poly_encode_4_bits, ptr @poly_encode_6_bits
  %9 = getelementptr inbounds nuw i8, ptr %0, i64 8
  %10 = load i64, ptr %9, align 8, !tbaa !69
  %.not17 = icmp eq i64 %10, 0
  br i1 %.not17, label %._crit_edge, label %.lr.ph

11:                                               ; preds = %.lr.ph
  %12 = add nuw i64 %.014, 1
  %13 = load i64, ptr %9, align 8, !tbaa !69
  %14 = icmp ult i64 %12, %13
  br i1 %14, label %.lr.ph, label %._crit_edge, !llvm.loop !81

.lr.ph:                                           ; preds = %7, %11
  %.014 = phi i64 [ %12, %11 ], [ 0, %7 ]
  %15 = load ptr, ptr %0, align 8, !tbaa !68
  %16 = getelementptr inbounds nuw %struct.poly_st, ptr %15, i64 %.014
  %17 = call i32 %poly_encode_4_bits.poly_encode_6_bits(ptr noundef %16, ptr noundef nonnull %5) #9, !callees !82
  %.not13 = icmp eq i32 %17, 0
  br i1 %.not13, label %._crit_edge, label %11

._crit_edge:                                      ; preds = %.lr.ph, %11, %7
  %.010 = phi i32 [ 1, %7 ], [ 1, %11 ], [ 0, %.lr.ph ]
  %18 = call i32 @WPACKET_finish(ptr noundef nonnull %5) #9
  br label %19

19:                                               ; preds = %4, %._crit_edge
  %.012 = phi i32 [ %.010, %._crit_edge ], [ 0, %4 ]
  call void @llvm.lifetime.end.p0(i64 56, ptr nonnull %5) #9
  ret i32 %.012
}